target datalayout = "e-m:e-p270:32:32-p271:32:32-p272:64:64-i64:64-i128:128-f80:128-n8:16:32:64-S128"
target triple = "x86_64-pc-linux-gnu"

%struct._zval_struct = type { %union._zend_value, %union.anon.0, %union.anon.3 }
%union._zend_value = type { i64 }
%union.anon.0 = type { i32 }
%union.anon.3 = type { i32 }

; Function Attrs: nounwind uwtable
define internal void @zend_property_guard_dtor(ptr noundef %0) #0 {
  %2 = alloca ptr, align 8
  %3 = alloca ptr, align 8
  store ptr %0, ptr %2, align 8
  %4 = load ptr, ptr %2, align 8
  %5 = getelementptr inbounds %struct._zval_struct, ptr %4, i32 0, i32 0
  %6 = load ptr, ptr %5, align 8
  store ptr %6, ptr %3, align 8
  %7 = load ptr, ptr %3, align 8
  %8 = ptrtoint ptr %7 to i64
  %9 = and i64 %8, 1
  %10 = icmp ne i64 %9, 0
  %11 = xor i1 %10, true
  %12 = xor i1 %11, true
  %13 = xor i1 %12, true
  %14 = zext i1 %13 to i32
  %15 = sext i32 %14 to i64
  %16 = icmp ne i64 %15, 0
  br i1 %16, label %17, label %21

17:                                               ; preds = %1
  br label %18

18:                                               ; preds = %17
  %19 = load ptr, ptr %3, align 8
  call void @_efree_8(ptr noundef %19)
  br label %20

20:                                               ; preds = %18
  br label %21

21:                                               ; preds = %20, %1
  ret void
}