; Function Attrs: nounwind uwtable
define internal void @zend_property_guard_dtor(ptr nocapture noundef readonly %0) #0 {
  %2 = load ptr, ptr %0, align 8
  %3 = ptrtoint ptr %2 to i64
  %4 = and i64 %3, 1
  %.not = icmp eq i64 %4, 0
  br i1 %.not, label %5, label %6

5:                                                ; preds = %1
  tail call void @_efree_8(ptr noundef %2) #15
  br label %6

6:                                                ; preds = %5, %1
  ret void
}